; ModuleID = '20/402.c'
source_filename = "20/402.c"
target datalayout = "e-m:e-p270:32:32-p271:32:32-p272:64:64-i64:64-f80:128-n8:16:32:64-S128"
target triple = "x86_64-pc-linux-gnu"

@.str = private unnamed_addr constant [5 x i8] c"%s%s\00", align 1
@.str.1 = private unnamed_addr constant [3 x i8] c"%c\00", align 1
@.str.2 = private unnamed_addr constant [3 x i8] c"%s\00", align 1
@.str.3 = private unnamed_addr constant [2 x i8] c"\0A\00", align 1

; Function Attrs: noinline nounwind uwtable
define dso_local i32 @max(i8* %0) #0 {
  %2 = alloca i8*, align 8
  %3 = alloca i32, align 4
  %4 = alloca i32, align 4
  %5 = alloca i8, align 1
  store i8* %0, i8** %2, align 8
  store i32 0, i32* %4, align 4
  store i8 0, i8* %5, align 1
  store i32 0, i32* %3, align 4
  br label %6

6:                                                ; preds = %30, %1
  %7 = load i32, i32* %3, align 4
  %8 = sext i32 %7 to i64
  %9 = load i8*, i8** %2, align 8
  %10 = call i64 @strlen(i8* %9) #3
  %11 = icmp ult i64 %8, %10
  br i1 %11, label %12, label %33

12:                                               ; preds = %6
  %13 = load i8*, i8** %2, align 8
  %14 = load i32, i32* %3, align 4
  %15 = sext i32 %14 to i64
  %16 = getelementptr inbounds i8, i8* %13, i64 %15
  %17 = load i8, i8* %16, align 1
  %18 = sext i8 %17 to i32
  %19 = load i8, i8* %5, align 1
  %20 = sext i8 %19 to i32
  %21 = icmp sgt i32 %18, %20
  br i1 %21, label %22, label %29

22:                                               ; preds = %12
  %23 = load i8*, i8** %2, align 8
  %24 = load i32, i32* %3, align 4
  %25 = sext i32 %24 to i64
  %26 = getelementptr inbounds i8, i8* %23, i64 %25
  %27 = load i8, i8* %26, align 1
  store i8 %27, i8* %5, align 1
  %28 = load i32, i32* %3, align 4
  store i32 %28, i32* %4, align 4
  br label %29

29:                                               ; preds = %22, %12
  br label %30

30:                                               ; preds = %29
  %31 = load i32, i32* %3, align 4
  %32 = add nsw i32 %31, 1
  store i32 %32, i32* %3, align 4
  br label %6

33:                                               ; preds = %6
  %34 = load i32, i32* %4, align 4
  ret i32 %34
}

; Function Attrs: nounwind readonly
declare dso_local i64 @strlen(i8*) #1

; Function Attrs: noinline nounwind uwtable
define dso_local void @main() #0 {
  %1 = alloca [11 x i8], align 1
  %2 = alloca [4 x i8], align 1
  %3 = alloca i32, align 4
  %4 = alloca i32, align 4
  %5 = alloca i32, align 4
  br label %6

6:                                                ; preds = %49, %0
  %7 = getelementptr inbounds [11 x i8], [11 x i8]* %1, i64 0, i64 0
  %8 = getelementptr inbounds [4 x i8], [4 x i8]* %2, i64 0, i64 0
  %9 = call i32 (i8*, ...) @__isoc99_scanf(i8* getelementptr inbounds ([5 x i8], [5 x i8]* @.str, i64 0, i64 0), i8* %7, i8* %8)
  %10 = icmp ne i32 %9, -1
  br i1 %10, label %11, label %51

11:                                               ; preds = %6
  %12 = getelementptr inbounds [11 x i8], [11 x i8]* %1, i64 0, i64 0
  %13 = call i32 @max(i8* %12)
  store i32 %13, i32* %5, align 4
  store i32 0, i32* %3, align 4
  br label %14

14:                                               ; preds = %25, %11
  %15 = load i32, i32* %3, align 4
  %16 = load i32, i32* %5, align 4
  %17 = icmp sle i32 %15, %16
  br i1 %17, label %18, label %28

18:                                               ; preds = %14
  %19 = load i32, i32* %3, align 4
  %20 = sext i32 %19 to i64
  %21 = getelementptr inbounds [11 x i8], [11 x i8]* %1, i64 0, i64 %20
  %22 = load i8, i8* %21, align 1
  %23 = sext i8 %22 to i32
  %24 = call i32 (i8*, ...) @printf(i8* getelementptr inbounds ([3 x i8], [3 x i8]* @.str.1, i64 0, i64 0), i32 %23)
  br label %25

25:                                               ; preds = %18
  %26 = load i32, i32* %3, align 4
  %27 = add nsw i32 %26, 1
  store i32 %27, i32* %3, align 4
  br label %14

28:                                               ; preds = %14
  %29 = getelementptr inbounds [4 x i8], [4 x i8]* %2, i64 0, i64 0
  %30 = call i32 (i8*, ...) @printf(i8* getelementptr inbounds ([3 x i8], [3 x i8]* @.str.2, i64 0, i64 0), i8* %29)
  %31 = load i32, i32* %5, align 4
  %32 = add nsw i32 %31, 1
  store i32 %32, i32* %3, align 4
  br label %33

33:                                               ; preds = %46, %28
  %34 = load i32, i32* %3, align 4
  %35 = sext i32 %34 to i64
  %36 = getelementptr inbounds [11 x i8], [11 x i8]* %1, i64 0, i64 0
  %37 = call i64 @strlen(i8* %36) #3
  %38 = icmp ult i64 %35, %37
  br i1 %38, label %39, label %49

39:                                               ; preds = %33
  %40 = load i32, i32* %3, align 4
  %41 = sext i32 %40 to i64
  %42 = getelementptr inbounds [11 x i8], [11 x i8]* %1, i64 0, i64 %41
  %43 = load i8, i8* %42, align 1
  %44 = sext i8 %43 to i32
  %45 = call i32 (i8*, ...) @printf(i8* getelementptr inbounds ([3 x i8], [3 x i8]* @.str.1, i64 0, i64 0), i32 %44)
  br label %46

46:                                               ; preds = %39
  %47 = load i32, i32* %3, align 4
  %48 = add nsw i32 %47, 1
  store i32 %48, i32* %3, align 4
  br label %33

49:                                               ; preds = %33
  %50 = call i32 (i8*, ...) @printf(i8* getelementptr inbounds ([2 x i8], [2 x i8]* @.str.3, i64 0, i64 0))
  br label %6

51:                                               ; preds = %6
  ret void
}

declare dso_local i32 @__isoc99_scanf(i8*, ...) #2

declare dso_local i32 @printf(i8*, ...) #2


!llvm.module.flags = !{!0}
!llvm.ident = !{!1}

!0 = !{i32 1, !"wchar_size", i32 4}
!1 = !{!"clang version 10.0.0-4ubuntu1 "}
